target datalayout = "e-m:e-p270:32:32-p271:32:32-p272:64:64-i64:64-i128:128-f80:128-n8:16:32:64-S128"
target triple = "x86_64-pc-linux-gnu"

%struct._GLFWlibrary = type { i32, %struct.GLFWallocator, %struct._GLFWplatform, %struct.anon, ptr, ptr, ptr, ptr, i32, i32, [16 x %struct._GLFWjoystick], ptr, i32, %struct._GLFWtls, %struct._GLFWtls, %struct._GLFWmutex, %struct.anon.8, %struct.anon.9, %struct.anon.10, %struct.anon.11, %struct.anon.12, %struct._GLFWlibraryWayland, %struct._GLFWlibraryX11, %struct._GLFWlibraryNull, %struct._GLFWlibraryGLX, %struct._GLFWlibraryLinux }
%struct.GLFWallocator = type { ptr, ptr, ptr, ptr }
%struct._GLFWplatform = type { i32, ptr, ptr, ptr, ptr, ptr, ptr, ptr, ptr, ptr, ptr, ptr, ptr, ptr, ptr, ptr, ptr, ptr, ptr, ptr, ptr, ptr, ptr, ptr, ptr, ptr, ptr, ptr, ptr, ptr, ptr, ptr, ptr, ptr, ptr, ptr, ptr, ptr, ptr, ptr, ptr, ptr, ptr, ptr, ptr, ptr, ptr, ptr, ptr, ptr, ptr, ptr, ptr, ptr, ptr, ptr, ptr, ptr, ptr, ptr, ptr, ptr, ptr, ptr, ptr, ptr, ptr, ptr, ptr, ptr, ptr, ptr }
%struct.anon = type { %struct._GLFWinitconfig, %struct._GLFWfbconfig, %struct._GLFWwndconfig, %struct._GLFWctxconfig, i32 }
%struct._GLFWinitconfig = type { i32, i32, i32, ptr, %struct.anon.0, %struct.anon.1, %struct.anon.2 }
%struct.anon.0 = type { i32, i32 }
%struct.anon.1 = type { i32 }
%struct.anon.2 = type { i32 }
%struct._GLFWfbconfig = type { i32, i32, i32, i32, i32, i32, i32, i32, i32, i32, i32, i32, i32, i32, i32, i32, i64 }
%struct._GLFWwndconfig = type { i32, i32, i32, i32, ptr, i32, i32, i32, i32, i32, i32, i32, i32, i32, i32, i32, i32, %struct.anon.3, %struct.anon.4, %struct.anon.5, %struct.anon.6 }
%struct.anon.3 = type { [256 x i8] }
%struct.anon.4 = type { [256 x i8], [256 x i8] }
%struct.anon.5 = type { i32, i32 }
%struct.anon.6 = type { [256 x i8] }
%struct._GLFWctxconfig = type { i32, i32, i32, i32, i32, i32, i32, i32, i32, i32, ptr, %struct.anon.7 }
%struct.anon.7 = type { i32 }
%struct._GLFWjoystick = type { i32, i32, ptr, i32, ptr, i32, ptr, i32, [128 x i8], ptr, [33 x i8], ptr, %struct._GLFWjoystickLinux }
%struct._GLFWjoystickLinux = type { i32, [4096 x i8], [512 x i32], [64 x i32], [64 x %struct.input_absinfo], [4 x [2 x i32]] }
%struct.input_absinfo = type { i32, i32, i32, i32, i32, i32 }
%struct._GLFWtls = type { %struct._GLFWtlsPOSIX }
%struct._GLFWtlsPOSIX = type { i32, i32 }
%struct._GLFWmutex = type { %struct._GLFWmutexPOSIX }
%struct._GLFWmutexPOSIX = type { i32, %union.pthread_mutex_t }
%union.pthread_mutex_t = type { %struct.__pthread_mutex_s }
%struct.__pthread_mutex_s = type { i32, i32, i32, i32, i32, i16, i16, %struct.__pthread_internal_list }
%struct.__pthread_internal_list = type { ptr, ptr }
%struct.anon.8 = type { i64, %struct._GLFWtimerPOSIX }
%struct._GLFWtimerPOSIX = type { i32, i64 }
%struct.anon.9 = type { i32, ptr, i32, i32, i32, i32, i32, i32, i32, i32, i32, i32, i32, i32, i32, i32, i32, i32, i32, i32, ptr, ptr, ptr, ptr, ptr, ptr, ptr, ptr, ptr, ptr, ptr, ptr, ptr, ptr, ptr, ptr, ptr, ptr, ptr }
%struct.anon.10 = type { ptr, ptr, ptr, ptr, ptr, ptr, ptr, ptr }
%struct.anon.11 = type { i32, ptr, [2 x ptr], ptr, i32, i32, i32, i32, i32, i32, i32 }
%struct.anon.12 = type { ptr, ptr }
%struct._GLFWlibraryWayland = type { ptr, ptr, ptr, ptr, ptr, ptr, ptr, ptr, ptr, ptr, ptr, ptr, ptr, ptr, ptr, ptr, ptr, ptr, ptr, i32, ptr, ptr, ptr, ptr, i32, ptr, ptr, ptr, ptr, ptr, i32, i32, i32, i32, i32, i32, i32, ptr, [256 x i16], [349 x i16], [349 x [5 x i8]], %struct.anon.13, ptr, ptr, %struct.anon.14, %struct.anon.15, %struct.anon.16, %struct.anon.17 }
%struct.anon.13 = type { ptr, ptr, ptr, ptr, ptr, i32, i32, i32, i32, i32, i32, i32, ptr, ptr, ptr, ptr, ptr, ptr, ptr, ptr, ptr, ptr, ptr, ptr, ptr, ptr, ptr, ptr, ptr, ptr, ptr, ptr }
%struct.anon.14 = type { ptr, ptr, ptr, ptr, ptr, ptr, ptr, ptr, ptr, ptr, ptr, ptr, ptr, ptr, ptr, ptr, ptr, ptr, ptr, ptr }
%struct.anon.15 = type { ptr, ptr, ptr, ptr, ptr }
%struct.anon.16 = type { ptr, ptr, ptr, ptr }
%struct.anon.17 = type { ptr, ptr, ptr, i32, ptr, ptr, ptr, ptr, ptr, ptr, ptr, ptr, ptr, ptr, ptr, ptr, ptr, ptr, ptr, ptr, ptr, ptr, ptr, ptr, ptr, ptr, ptr, ptr, ptr }
%struct._GLFWlibraryX11 = type { ptr, i32, i64, float, float, i64, i64, i32, ptr, ptr, i32, ptr, ptr, [349 x [5 x i8]], [256 x i16], [349 x i16], double, double, ptr, [2 x i32], i64, i64, i64, i64, i64, i64, i64, i64, i64, i64, i64, i64, i64, i64, i64, i64, i64, i64, i64, i64, i64, i64, i64, i64, i64, i64, i64, i64, i64, i64, i64, i64, i64, i64, i64, i64, i64, i64, i64, i64, i64, i64, i64, i64, i64, i64, i64, i64, i64, i64, %struct.anon.18, %struct.anon.19, %struct.anon.20, %struct.anon.21, %struct.anon.22, %struct.anon.23, %struct.anon.24, %struct.anon.25, %struct.anon.26, %struct.anon.27, %struct.anon.28, %struct.anon.29, %struct.anon.30 }
%struct.anon.18 = type { ptr, i32, ptr, ptr, ptr, ptr, ptr, ptr, ptr, ptr, ptr, ptr, ptr, ptr, ptr, ptr, ptr, ptr, ptr, ptr, ptr, ptr, ptr, ptr, ptr, ptr, ptr, ptr, ptr, ptr, ptr, ptr, ptr, ptr, ptr, ptr, ptr, ptr, ptr, ptr, ptr, ptr, ptr, ptr, ptr, ptr, ptr, ptr, ptr, ptr, ptr, ptr, ptr, ptr, ptr, ptr, ptr, ptr, ptr, ptr, ptr, ptr, ptr, ptr, ptr, ptr, ptr, ptr, ptr, ptr, ptr, ptr, ptr, ptr, ptr, ptr, ptr, ptr, ptr, ptr, ptr, ptr, ptr, ptr, ptr, ptr, ptr, ptr }
%struct.anon.19 = type { ptr, ptr, ptr, ptr }
%struct.anon.20 = type { i32, ptr, i32, i32, i32, i32, i32, i32, ptr, ptr, ptr, ptr, ptr, ptr, ptr, ptr, ptr, ptr, ptr, ptr, ptr, ptr, ptr, ptr, ptr }
%struct.anon.21 = type { i32, i32, i32, i32, i32, i32, i32, i32, ptr, ptr, ptr, ptr, ptr, ptr, ptr, ptr, ptr }
%struct.anon.22 = type { i32, i32, i32, i32, i32 }
%struct.anon.23 = type { i32, i64, i64 }
%struct.anon.24 = type { ptr, ptr, ptr, ptr, ptr, ptr, ptr }
%struct.anon.25 = type { i32, ptr, i32, i32, ptr, ptr, ptr }
%struct.anon.26 = type { ptr, ptr }
%struct.anon.27 = type { i32, ptr, i32, i32, ptr, ptr, ptr, ptr }
%struct.anon.28 = type { i32, ptr, i32, i32, i32, i32, i32, ptr, ptr }
%struct.anon.29 = type { i32, ptr, i32, i32, i32, i32, ptr, ptr, ptr }
%struct.anon.30 = type { i32, ptr, i32, i32, i32, i32, ptr, ptr, ptr, ptr }
%struct._GLFWlibraryNull = type { i32, i32, ptr, ptr, [121 x i16], [349 x i8] }
%struct._GLFWlibraryGLX = type { i32, i32, i32, i32, ptr, ptr, ptr, ptr, ptr, ptr, ptr, ptr, ptr, ptr, ptr, ptr, ptr, ptr, ptr, ptr, ptr, ptr, ptr, ptr, i32, i32, i32, i32, i32, i32, i32, i32, i32, i32, i32, i32 }
%struct._GLFWlibraryLinux = type { i32, i32, %struct.re_pattern_buffer, i32, i32 }
%struct.re_pattern_buffer = type { ptr, i64, i64, i64, ptr, ptr, i64, i8 }
%struct._GLFWwindow = type { ptr, i32, i32, i32, i32, i32, i32, i32, ptr, i32, %struct.GLFWvidmode, ptr, ptr, ptr, i32, i32, i32, i32, i32, i32, i32, i32, i32, i32, [8 x i8], [349 x i8], double, double, i32, %struct._GLFWcontext, %struct.anon.33, %struct._GLFWwindowWayland, %struct._GLFWwindowX11, %struct._GLFWwindowNull }
%struct.GLFWvidmode = type { i32, i32, i32, i32, i32, i32 }
%struct._GLFWcontext = type { i32, i32, i32, i32, i32, i32, i32, i32, i32, i32, i32, ptr, ptr, ptr, ptr, ptr, ptr, ptr, ptr, ptr, %struct.anon.31, %struct.anon.32, %struct._GLFWcontextGLX }
%struct.anon.31 = type { ptr, ptr, ptr, ptr }
%struct.anon.32 = type { ptr, i32, i32, ptr }
%struct._GLFWcontextGLX = type { ptr, i64 }
%struct.anon.33 = type { ptr, ptr, ptr, ptr, ptr, ptr, ptr, ptr, ptr, ptr, ptr, ptr, ptr, ptr, ptr, ptr, ptr }
%struct._GLFWwindowWayland = type { i32, i32, i32, i32, i32, i32, i32, i32, i32, i32, i32, ptr, ptr, %struct.anon.34, %struct.anon.35, %struct.anon.36, %struct.anon.37, ptr, double, double, ptr, i32, ptr, i64, i64, ptr, i32, ptr, ptr, ptr, ptr, ptr, ptr, %struct.anon.38 }
%struct.anon.34 = type { ptr }
%struct.anon.35 = type { i32, i32, i32, i32, i32, i32 }
%struct.anon.36 = type { ptr, ptr, ptr, i32 }
%struct.anon.37 = type { ptr }
%struct.anon.38 = type { i32, ptr, %struct._GLFWfallbackEdgeWayland, %struct._GLFWfallbackEdgeWayland, %struct._GLFWfallbackEdgeWayland, %struct._GLFWfallbackEdgeWayland, ptr }
%struct._GLFWfallbackEdgeWayland = type { ptr, ptr, ptr }
%struct._GLFWwindowX11 = type { i64, i64, i64, ptr, i32, i32, i32, i32, i32, i32, i32, i32, i32, i32, i32, i32, [256 x i64] }
%struct._GLFWwindowNull = type { i32, i32, i32, i32, i32, i32, i32, i32, i32, i32, i32, float }

@_glfw = external global %struct._GLFWlibrary, align 8

; Function Attrs: nounwind uwtable
define hidden void @_glfwSetWindowAspectRatioWayland(ptr noundef %0, i32 noundef %1, i32 noundef %2) #0 {
  %4 = alloca ptr, align 8
  %5 = alloca i32, align 4
  %6 = alloca i32, align 4
  %7 = alloca i32, align 4
  %8 = alloca i32, align 4
  %9 = alloca float, align 4
  %10 = alloca float, align 4
  %11 = alloca ptr, align 8
  store ptr %0, ptr %4, align 8, !tbaa !3
  store i32 %1, ptr %5, align 4, !tbaa !129
  store i32 %2, ptr %6, align 4, !tbaa !129
  %12 = load ptr, ptr %4, align 8, !tbaa !3
  %13 = getelementptr inbounds nuw %struct._GLFWwindow, ptr %12, i32 0, i32 31
  %14 = getelementptr inbounds nuw %struct._GLFWwindowWayland, ptr %13, i32 0, i32 5
  %15 = load i32, ptr %14, align 4, !tbaa !159
  %16 = icmp ne i32 %15, 0
  br i1 %16, label %23, label %17

17:                                               ; preds = %3
  %18 = load ptr, ptr %4, align 8, !tbaa !3
  %19 = getelementptr inbounds nuw %struct._GLFWwindow, ptr %18, i32 0, i32 31
  %20 = getelementptr inbounds nuw %struct._GLFWwindowWayland, ptr %19, i32 0, i32 7
  %21 = load i32, ptr %20, align 4, !tbaa !157
  %22 = icmp ne i32 %21, 0
  br i1 %22, label %23, label %24

23:                                               ; preds = %17, %3
  br label %122

24:                                               ; preds = %17
  call void @llvm.lifetime.start.p0(i64 4, ptr %7) #9
  %25 = load ptr, ptr %4, align 8, !tbaa !3
  %26 = getelementptr inbounds nuw %struct._GLFWwindow, ptr %25, i32 0, i32 31
  %27 = getelementptr inbounds nuw %struct._GLFWwindowWayland, ptr %26, i32 0, i32 0
  %28 = load i32, ptr %27, align 8, !tbaa !143
  store i32 %28, ptr %7, align 4, !tbaa !129
  call void @llvm.lifetime.start.p0(i64 4, ptr %8) #9
  %29 = load ptr, ptr %4, align 8, !tbaa !3
  %30 = getelementptr inbounds nuw %struct._GLFWwindow, ptr %29, i32 0, i32 31
  %31 = getelementptr inbounds nuw %struct._GLFWwindowWayland, ptr %30, i32 0, i32 1
  %32 = load i32, ptr %31, align 4, !tbaa !146
  store i32 %32, ptr %8, align 4, !tbaa !129
  %33 = load i32, ptr %5, align 4, !tbaa !129
  %34 = icmp ne i32 %33, -1
  br i1 %34, label %35, label %70

35:                                               ; preds = %24
  %36 = load i32, ptr %6, align 4, !tbaa !129
  %37 = icmp ne i32 %36, -1
  br i1 %37, label %38, label %70

38:                                               ; preds = %35
  call void @llvm.lifetime.start.p0(i64 4, ptr %9) #9
  %39 = load i32, ptr %7, align 4, !tbaa !129
  %40 = sitofp i32 %39 to float
  %41 = load i32, ptr %8, align 4, !tbaa !129
  %42 = sitofp i32 %41 to float
  %43 = fdiv float %40, %42
  store float %43, ptr %9, align 4, !tbaa !163
  call void @llvm.lifetime.start.p0(i64 4, ptr %10) #9
  %44 = load i32, ptr %5, align 4, !tbaa !129
  %45 = sitofp i32 %44 to float
  %46 = load i32, ptr %6, align 4, !tbaa !129
  %47 = sitofp i32 %46 to float
  %48 = fdiv float %45, %47
  store float %48, ptr %10, align 4, !tbaa !163
  %49 = load float, ptr %9, align 4, !tbaa !163
  %50 = load float, ptr %10, align 4, !tbaa !163
  %51 = fcmp olt float %49, %50
  br i1 %51, label %52, label %58

52:                                               ; preds = %38
  %53 = load float, ptr %10, align 4, !tbaa !163
  %54 = load i32, ptr %8, align 4, !tbaa !129
  %55 = sitofp i32 %54 to float
  %56 = fdiv float %55, %53
  %57 = fptosi float %56 to i32
  store i32 %57, ptr %8, align 4, !tbaa !129
  br label %69

58:                                               ; preds = %38
  %59 = load float, ptr %9, align 4, !tbaa !163
  %60 = load float, ptr %10, align 4, !tbaa !163
  %61 = fcmp ogt float %59, %60
  br i1 %61, label %62, label %68

62:                                               ; preds = %58
  %63 = load float, ptr %10, align 4, !tbaa !163
  %64 = load i32, ptr %7, align 4, !tbaa !129
  %65 = sitofp i32 %64 to float
  %66 = fmul float %65, %63
  %67 = fptosi float %66 to i32
  store i32 %67, ptr %7, align 4, !tbaa !129
  br label %68

68:                                               ; preds = %62, %58
  br label %69

69:                                               ; preds = %68, %52
  call void @llvm.lifetime.end.p0(i64 4, ptr %10) #9
  call void @llvm.lifetime.end.p0(i64 4, ptr %9) #9
  br label %70

70:                                               ; preds = %69, %35, %24
  %71 = load ptr, ptr %4, align 8, !tbaa !3
  %72 = load i32, ptr %7, align 4, !tbaa !129
  %73 = load i32, ptr %8, align 4, !tbaa !129
  %74 = call i32 @resizeWindow(ptr noundef %71, i32 noundef %72, i32 noundef %73)
  %75 = icmp ne i32 %74, 0
  br i1 %75, label %76, label %121

76:                                               ; preds = %70
  %77 = load ptr, ptr %4, align 8, !tbaa !3
  %78 = getelementptr inbounds nuw %struct._GLFWwindow, ptr %77, i32 0, i32 31
  %79 = getelementptr inbounds nuw %struct._GLFWwindowWayland, ptr %78, i32 0, i32 16
  %80 = getelementptr inbounds nuw %struct.anon.37, ptr %79, i32 0, i32 0
  %81 = load ptr, ptr %80, align 8, !tbaa !172
  %82 = icmp ne ptr %81, null
  br i1 %82, label %83, label %103

83:                                               ; preds = %76
  call void @llvm.lifetime.start.p0(i64 8, ptr %11) #9
  %84 = load ptr, ptr getelementptr inbounds nuw (%struct.anon.17, ptr getelementptr inbounds nuw (%struct._GLFWlibraryWayland, ptr getelementptr inbounds nuw (%struct._GLFWlibrary, ptr @_glfw, i32 0, i32 21), i32 0, i32 47), i32 0, i32 27), align 8, !tbaa !164
  %85 = load ptr, ptr %4, align 8, !tbaa !3
  %86 = getelementptr inbounds nuw %struct._GLFWwindow, ptr %85, i32 0, i32 31
  %87 = getelementptr inbounds nuw %struct._GLFWwindowWayland, ptr %86, i32 0, i32 0
  %88 = load i32, ptr %87, align 8, !tbaa !143
  %89 = load ptr, ptr %4, align 8, !tbaa !3
  %90 = getelementptr inbounds nuw %struct._GLFWwindow, ptr %89, i32 0, i32 31
  %91 = getelementptr inbounds nuw %struct._GLFWwindowWayland, ptr %90, i32 0, i32 1
  %92 = load i32, ptr %91, align 4, !tbaa !146
  %93 = call ptr %84(i32 noundef %88, i32 noundef %92)
  store ptr %93, ptr %11, align 8, !tbaa !165
  %94 = load ptr, ptr getelementptr inbounds nuw (%struct.anon.17, ptr getelementptr inbounds nuw (%struct._GLFWlibraryWayland, ptr getelementptr inbounds nuw (%struct._GLFWlibrary, ptr @_glfw, i32 0, i32 21), i32 0, i32 47), i32 0, i32 16), align 8, !tbaa !167
  %95 = load ptr, ptr %4, align 8, !tbaa !3
  %96 = getelementptr inbounds nuw %struct._GLFWwindow, ptr %95, i32 0, i32 31
  %97 = getelementptr inbounds nuw %struct._GLFWwindowWayland, ptr %96, i32 0, i32 16
  %98 = getelementptr inbounds nuw %struct.anon.37, ptr %97, i32 0, i32 0
  %99 = load ptr, ptr %98, align 8, !tbaa !172
  %100 = load ptr, ptr %11, align 8, !tbaa !165
  call void %94(ptr noundef %99, ptr noundef %100, ptr noundef null)
  %101 = load ptr, ptr getelementptr inbounds nuw (%struct.anon.17, ptr getelementptr inbounds nuw (%struct._GLFWlibraryWayland, ptr getelementptr inbounds nuw (%struct._GLFWlibrary, ptr @_glfw, i32 0, i32 21), i32 0, i32 47), i32 0, i32 28), align 8, !tbaa !168
  %102 = load ptr, ptr %11, align 8, !tbaa !165
  call void %101(ptr noundef %102)
  call void @llvm.lifetime.end.p0(i64 8, ptr %11) #9
  br label %103

103:                                              ; preds = %83, %76
  %104 = load ptr, ptr %4, align 8, !tbaa !3
  %105 = load ptr, ptr %4, align 8, !tbaa !3
  %106 = getelementptr inbounds nuw %struct._GLFWwindow, ptr %105, i32 0, i32 31
  %107 = getelementptr inbounds nuw %struct._GLFWwindowWayland, ptr %106, i32 0, i32 0
  %108 = load i32, ptr %107, align 8, !tbaa !143
  %109 = load ptr, ptr %4, align 8, !tbaa !3
  %110 = getelementptr inbounds nuw %struct._GLFWwindow, ptr %109, i32 0, i32 31
  %111 = getelementptr inbounds nuw %struct._GLFWwindowWayland, ptr %110, i32 0, i32 1
  %112 = load i32, ptr %111, align 4, !tbaa !146
  call void @_glfwInputWindowSize(ptr noundef %104, i32 noundef %108, i32 noundef %112)
  %113 = load ptr, ptr %4, align 8, !tbaa !3
  %114 = getelementptr inbounds nuw %struct._GLFWwindow, ptr %113, i32 0, i32 31
  %115 = getelementptr inbounds nuw %struct._GLFWwindowWayland, ptr %114, i32 0, i32 4
  %116 = load i32, ptr %115, align 8, !tbaa !138
  %117 = icmp ne i32 %116, 0
  br i1 %117, label %118, label %120

118:                                              ; preds = %103
  %119 = load ptr, ptr %4, align 8, !tbaa !3
  call void @_glfwInputWindowDamage(ptr noundef %119)
  br label %120

120:                                              ; preds = %118, %103
  br label %121

121:                                              ; preds = %120, %70
  call void @llvm.lifetime.end.p0(i64 4, ptr %8) #9
  call void @llvm.lifetime.end.p0(i64 4, ptr %7) #9
  br label %122

122:                                              ; preds = %121, %23
  ret void
}