; Function Attrs: nounwind uwtable
define hidden void @_glfwSetWindowAspectRatioWayland(ptr noundef %0, i32 noundef %1, i32 noundef %2) local_unnamed_addr #0 {
  %4 = getelementptr inbounds nuw i8, ptr %0, i64 856
  %5 = getelementptr inbounds nuw i8, ptr %0, i64 876
  %6 = load i32, ptr %5, align 4, !tbaa !150
  %.not = icmp eq i32 %6, 0
  br i1 %.not, label %7, label %51

7:                                                ; preds = %3
  %8 = getelementptr inbounds nuw i8, ptr %0, i64 884
  %9 = load i32, ptr %8, align 4, !tbaa !148
  %.not39 = icmp eq i32 %9, 0
  br i1 %.not39, label %10, label %51

10:                                               ; preds = %7
  %11 = load i32, ptr %4, align 8, !tbaa !138
  %12 = getelementptr inbounds nuw i8, ptr %0, i64 860
  %13 = load i32, ptr %12, align 4, !tbaa !140
  %14 = icmp ne i32 %1, -1
  %15 = icmp ne i32 %2, -1
  %or.cond = and i1 %14, %15
  br i1 %or.cond, label %16, label %32

16:                                               ; preds = %10
  %17 = sitofp i32 %11 to float
  %18 = sitofp i32 %13 to float
  %19 = fdiv float %17, %18
  %20 = sitofp i32 %1 to float
  %21 = sitofp i32 %2 to float
  %22 = fdiv float %20, %21
  %23 = fcmp olt float %19, %22
  br i1 %23, label %24, label %27

24:                                               ; preds = %16
  %25 = fdiv float %18, %22
  %26 = fptosi float %25 to i32
  br label %32

27:                                               ; preds = %16
  %28 = fcmp ogt float %19, %22
  br i1 %28, label %29, label %32

29:                                               ; preds = %27
  %30 = fmul float %22, %17
  %31 = fptosi float %30 to i32
  br label %32

32:                                               ; preds = %24, %29, %27, %10
  %.032 = phi i32 [ %13, %10 ], [ %26, %24 ], [ %13, %29 ], [ %13, %27 ]
  %.0 = phi i32 [ %11, %10 ], [ %11, %24 ], [ %31, %29 ], [ %11, %27 ]
  %33 = tail call fastcc i32 @resizeWindow(ptr noundef nonnull %0, i32 noundef %.0, i32 noundef %.032)
  %.not40 = icmp eq i32 %33, 0
  br i1 %.not40, label %51, label %34

34:                                               ; preds = %32
  %35 = getelementptr inbounds nuw i8, ptr %0, i64 984
  %36 = load ptr, ptr %35, align 8, !tbaa !160
  %.not41 = icmp eq ptr %36, null
  br i1 %.not41, label %45, label %37

37:                                               ; preds = %34
  %38 = load ptr, ptr getelementptr inbounds nuw (i8, ptr @_glfw, i64 137824), align 8, !tbaa !154
  %39 = load i32, ptr %4, align 8, !tbaa !138
  %40 = load i32, ptr %12, align 4, !tbaa !140
  %41 = tail call ptr %38(i32 noundef %39, i32 noundef %40) #20
  %42 = load ptr, ptr getelementptr inbounds nuw (i8, ptr @_glfw, i64 137736), align 8, !tbaa !155
  %43 = load ptr, ptr %35, align 8, !tbaa !160
  tail call void %42(ptr noundef %43, ptr noundef %41, ptr noundef null) #20
  %44 = load ptr, ptr getelementptr inbounds nuw (i8, ptr @_glfw, i64 137832), align 8, !tbaa !156
  tail call void %44(ptr noundef %41) #20
  br label %45

45:                                               ; preds = %37, %34
  %46 = load i32, ptr %4, align 8, !tbaa !138
  %47 = load i32, ptr %12, align 4, !tbaa !140
  tail call void @_glfwInputWindowSize(ptr noundef nonnull %0, i32 noundef %46, i32 noundef %47) #20
  %48 = getelementptr inbounds nuw i8, ptr %0, i64 872
  %49 = load i32, ptr %48, align 8, !tbaa !137
  %.not42 = icmp eq i32 %49, 0
  br i1 %.not42, label %51, label %50

50:                                               ; preds = %45
  tail call void @_glfwInputWindowDamage(ptr noundef nonnull %0) #20
  br label %51

51:                                               ; preds = %32, %50, %45, %3, %7
  ret void
}